; ModuleID = 'source-C-CXX/44/2377.c'
source_filename = "source-C-CXX/44/2377.c"
target datalayout = "e-m:e-p270:32:32-p271:32:32-p272:64:64-i64:64-f80:128-n8:16:32:64-S128"
target triple = "x86_64-pc-linux-gnu"

@.str = private unnamed_addr constant [5 x i8] c"%s%s\00", align 1
@.str.1 = private unnamed_addr constant [3 x i8] c"%d\00", align 1

; Function Attrs: nofree nounwind sspstrong uwtable
define dso_local i32 @main() local_unnamed_addr #0 {
  %1 = alloca [51 x i8], align 16
  %2 = alloca [51 x i8], align 16
  %3 = getelementptr inbounds [51 x i8], [51 x i8]* %1, i64 0, i64 0
  call void @llvm.lifetime.start.p0i8(i64 51, i8* nonnull %3) #4
  %4 = getelementptr inbounds [51 x i8], [51 x i8]* %2, i64 0, i64 0
  call void @llvm.lifetime.start.p0i8(i64 51, i8* nonnull %4) #4
  %5 = call i32 (i8*, ...) @__isoc99_scanf(i8* getelementptr inbounds ([5 x i8], [5 x i8]* @.str, i64 0, i64 0), i8* nonnull %3, i8* nonnull %4)
  %6 = call i64 @strlen(i8* noundef nonnull %3) #5
  %7 = trunc i64 %6 to i32
  %8 = call i64 @strlen(i8* noundef nonnull %4) #5
  %9 = trunc i64 %8 to i32
  %10 = icmp sgt i32 %9, 0
  br i1 %10, label %11, label %48

11:                                               ; preds = %0
  %12 = icmp sgt i32 %7, 0
  br i1 %12, label %13, label %38

13:                                               ; preds = %11
  %14 = and i64 %6, 4294967295
  br label %15

15:                                               ; preds = %13, %30
  %16 = phi i32 [ %31, %30 ], [ 0, %13 ]
  %17 = sext i32 %16 to i64
  br label %18

18:                                               ; preds = %15, %33
  %19 = phi i64 [ %17, %15 ], [ %35, %33 ]
  %20 = phi i64 [ 0, %15 ], [ %36, %33 ]
  %21 = phi i32 [ 0, %15 ], [ %34, %33 ]
  %22 = getelementptr inbounds [51 x i8], [51 x i8]* %2, i64 0, i64 %19
  %23 = load i8, i8* %22, align 1, !tbaa !5
  %24 = getelementptr inbounds [51 x i8], [51 x i8]* %1, i64 0, i64 %20
  %25 = load i8, i8* %24, align 1, !tbaa !5
  %26 = icmp eq i8 %23, %25
  br i1 %26, label %33, label %27

27:                                               ; preds = %18
  %28 = icmp eq i32 %21, %7
  %29 = trunc i64 %19 to i32
  br i1 %28, label %42, label %30

30:                                               ; preds = %27
  %31 = add nsw i32 %29, 1
  %32 = icmp slt i32 %31, %9
  br i1 %32, label %15, label %48, !llvm.loop !8

33:                                               ; preds = %18
  %34 = add nuw nsw i32 %21, 1
  %35 = add nsw i64 %19, 1
  %36 = add nuw nsw i64 %20, 1
  %37 = icmp eq i64 %36, %14
  br i1 %37, label %40, label %18, !llvm.loop !10

38:                                               ; preds = %11
  %39 = icmp eq i32 %7, 0
  br i1 %39, label %44, label %48

40:                                               ; preds = %33
  %41 = add i32 %16, %7
  br label %44

42:                                               ; preds = %27
  %43 = trunc i64 %19 to i32
  br label %44

44:                                               ; preds = %42, %40, %38
  %45 = phi i32 [ 0, %38 ], [ %41, %40 ], [ %43, %42 ]
  %46 = sub nsw i32 %45, %7
  %47 = call i32 (i8*, ...) @printf(i8* nonnull dereferenceable(1) getelementptr inbounds ([3 x i8], [3 x i8]* @.str.1, i64 0, i64 0), i32 %46)
  br label %48

48:                                               ; preds = %30, %38, %0, %44
  call void @llvm.lifetime.end.p0i8(i64 51, i8* nonnull %4) #4
  call void @llvm.lifetime.end.p0i8(i64 51, i8* nonnull %3) #4
  ret i32 0
}

; Function Attrs: argmemonly mustprogress nofree nosync nounwind willreturn
declare void @llvm.lifetime.start.p0i8(i64 immarg, i8* nocapture) #1

; Function Attrs: nofree nounwind
declare noundef i32 @__isoc99_scanf(i8* nocapture noundef readonly, ...) local_unnamed_addr #2

; Function Attrs: argmemonly mustprogress nofree nounwind readonly willreturn
declare i64 @strlen(i8* nocapture) local_unnamed_addr #3

; Function Attrs: nofree nounwind
declare noundef i32 @printf(i8* nocapture noundef readonly, ...) local_unnamed_addr #2

; Function Attrs: argmemonly mustprogress nofree nosync nounwind willreturn
declare void @llvm.lifetime.end.p0i8(i64 immarg, i8* nocapture) #1


!llvm.module.flags = !{!0, !1, !2, !3}
!llvm.ident = !{!4}

!0 = !{i32 1, !"wchar_size", i32 4}
!1 = !{i32 7, !"PIC Level", i32 2}
!2 = !{i32 7, !"PIE Level", i32 2}
!3 = !{i32 7, !"uwtable", i32 1}
!4 = !{!"clang version 13.0.0"}
!5 = !{!6, !6, i64 0}
!6 = !{!"omnipotent char", !7, i64 0}
!7 = !{!"Simple C/C++ TBAA"}
!8 = distinct !{!8, !9}
!9 = !{!"llvm.loop.mustprogress"}
!10 = distinct !{!10, !9}
